; Function Attrs: nofree norecurse nosync nounwind memory(argmem: readwrite) uwtable
define internal void @vp8_v_loop_filter_simple_c(ptr noundef captures(none) %0, i64 noundef %1, i32 noundef %2) #1 {
  %4 = mul nsw i64 %1, -2
  %5 = sub nsw i64 0, %1
  br label %6

6:                                                ; preds = %3, %51
  %indvars.iv = phi i64 [ 0, %3 ], [ %indvars.iv.next, %51 ]
  %7 = getelementptr inbounds nuw i8, ptr %0, i64 %indvars.iv
  %8 = getelementptr inbounds i8, ptr %7, i64 %4
  %9 = load i8, ptr %8, align 1, !tbaa !10
  %10 = zext i8 %9 to i32
  %11 = getelementptr inbounds i8, ptr %7, i64 %5
  %12 = load i8, ptr %11, align 1, !tbaa !10
  %13 = zext i8 %12 to i32
  %14 = load i8, ptr %7, align 1, !tbaa !10
  %15 = zext i8 %14 to i32
  %16 = getelementptr inbounds i8, ptr %7, i64 %1
  %17 = load i8, ptr %16, align 1, !tbaa !10
  %18 = zext i8 %17 to i32
  %19 = sub nsw i32 %13, %15
  %20 = tail call i32 @llvm.abs.i32(i32 %19, i1 true)
  %21 = sub nsw i32 %10, %18
  %22 = tail call i32 @llvm.abs.i32(i32 %21, i1 true)
  %23 = shl nuw nsw i32 %20, 1
  %24 = lshr i32 %22, 1
  %25 = add nuw nsw i32 %24, %23
  %.not8 = icmp sgt i32 %25, %2
  br i1 %.not8, label %51, label %26

26:                                               ; preds = %6
  %27 = sub nsw i32 %15, %13
  %28 = mul nsw i32 %27, 3
  %29 = sext i32 %21 to i64
  %gep = getelementptr i8, ptr getelementptr inbounds nuw (i8, ptr @ff_crop_tab, i64 1152), i64 %29
  %30 = load i8, ptr %gep, align 1, !tbaa !10
  %31 = zext i8 %30 to i32
  %32 = add nsw i32 %28, -128
  %33 = add nsw i32 %32, %31
  %34 = sext i32 %33 to i64
  %gep9 = getelementptr i8, ptr getelementptr inbounds nuw (i8, ptr @ff_crop_tab, i64 1152), i64 %34
  %35 = load i8, ptr %gep9, align 1, !tbaa !10
  %36 = zext i8 %35 to i32
  %37 = tail call i32 @llvm.umin.i32(i32 %36, i32 251)
  %38 = add nsw i32 %37, -124
  %39 = ashr i32 %38, 3
  %40 = tail call i32 @llvm.umin.i32(i32 %36, i32 252)
  %41 = add nsw i32 %40, -125
  %42 = ashr i32 %41, 3
  %43 = add nsw i32 %42, %13
  %44 = sext i32 %43 to i64
  %45 = getelementptr inbounds i8, ptr getelementptr inbounds nuw (i8, ptr @ff_crop_tab, i64 1024), i64 %44
  %46 = load i8, ptr %45, align 1, !tbaa !10
  store i8 %46, ptr %11, align 1, !tbaa !10
  %47 = sub nsw i32 %15, %39
  %48 = sext i32 %47 to i64
  %49 = getelementptr inbounds i8, ptr getelementptr inbounds nuw (i8, ptr @ff_crop_tab, i64 1024), i64 %48
  %50 = load i8, ptr %49, align 1, !tbaa !10
  store i8 %50, ptr %7, align 1, !tbaa !10
  br label %51

51:                                               ; preds = %6, %26
  %indvars.iv.next = add nuw nsw i64 %indvars.iv, 1
  %exitcond.not = icmp eq i64 %indvars.iv.next, 16
  br i1 %exitcond.not, label %52, label %6, !llvm.loop !158

52:                                               ; preds = %51
  ret void
}